; ModuleID = '55/828.c'
source_filename = "55/828.c"
target datalayout = "e-m:e-p270:32:32-p271:32:32-p272:64:64-i64:64-f80:128-n8:16:32:64-S128"
target triple = "x86_64-pc-linux-gnu"

@.str = private unnamed_addr constant [9 x i8] c"%d %s %d\00", align 1
@.str.1 = private unnamed_addr constant [2 x i8] c"0\00", align 1
@.str.2 = private unnamed_addr constant [3 x i8] c"%s\00", align 1

; Function Attrs: noinline nounwind uwtable
define dso_local i32 @main() #0 {
  %1 = alloca i32, align 4
  %2 = alloca i32, align 4
  %3 = alloca i32, align 4
  %4 = alloca i32, align 4
  %5 = alloca i32, align 4
  %6 = alloca i32, align 4
  %7 = alloca i32, align 4
  %8 = alloca i32, align 4
  %9 = alloca i32, align 4
  %10 = alloca i32, align 4
  %11 = alloca i32, align 4
  %12 = alloca [100 x i8], align 16
  %13 = alloca [100 x i32], align 16
  %14 = alloca [100 x i8], align 16
  store i32 0, i32* %1, align 4
  %15 = getelementptr inbounds [100 x i8], [100 x i8]* %12, i64 0, i64 0
  %16 = call i32 (i8*, ...) @__isoc99_scanf(i8* getelementptr inbounds ([9 x i8], [9 x i8]* @.str, i64 0, i64 0), i32* %2, i8* %15, i32* %3)
  %17 = getelementptr inbounds [100 x i8], [100 x i8]* %12, i64 0, i64 0
  %18 = call i64 @strlen(i8* %17) #3
  %19 = trunc i64 %18 to i32
  store i32 %19, i32* %11, align 4
  store i32 0, i32* %6, align 4
  store i32 1, i32* %4, align 4
  store i32 1, i32* %8, align 4
  store i32 0, i32* %7, align 4
  br label %20

20:                                               ; preds = %99, %0
  %21 = load i32, i32* %4, align 4
  %22 = load i32, i32* %11, align 4
  %23 = icmp sle i32 %21, %22
  br i1 %23, label %24, label %102

24:                                               ; preds = %20
  %25 = load i32, i32* %11, align 4
  %26 = load i32, i32* %4, align 4
  %27 = sub nsw i32 %25, %26
  %28 = sext i32 %27 to i64
  %29 = getelementptr inbounds [100 x i8], [100 x i8]* %12, i64 0, i64 %28
  %30 = load i8, i8* %29, align 1
  %31 = sext i8 %30 to i32
  %32 = icmp sge i32 %31, 97
  br i1 %32, label %33, label %52

33:                                               ; preds = %24
  %34 = load i32, i32* %11, align 4
  %35 = load i32, i32* %4, align 4
  %36 = sub nsw i32 %34, %35
  %37 = sext i32 %36 to i64
  %38 = getelementptr inbounds [100 x i8], [100 x i8]* %12, i64 0, i64 %37
  %39 = load i8, i8* %38, align 1
  %40 = sext i8 %39 to i32
  %41 = icmp sle i32 %40, 122
  br i1 %41, label %42, label %52

42:                                               ; preds = %33
  %43 = load i32, i32* %11, align 4
  %44 = load i32, i32* %4, align 4
  %45 = sub nsw i32 %43, %44
  %46 = sext i32 %45 to i64
  %47 = getelementptr inbounds [100 x i8], [100 x i8]* %12, i64 0, i64 %46
  %48 = load i8, i8* %47, align 1
  %49 = sext i8 %48 to i32
  %50 = sub nsw i32 %49, 97
  %51 = add nsw i32 %50, 10
  store i32 %51, i32* %6, align 4
  br label %90

52:                                               ; preds = %33, %24
  %53 = load i32, i32* %11, align 4
  %54 = load i32, i32* %4, align 4
  %55 = sub nsw i32 %53, %54
  %56 = sext i32 %55 to i64
  %57 = getelementptr inbounds [100 x i8], [100 x i8]* %12, i64 0, i64 %56
  %58 = load i8, i8* %57, align 1
  %59 = sext i8 %58 to i32
  %60 = icmp sge i32 %59, 65
  br i1 %60, label %61, label %80

61:                                               ; preds = %52
  %62 = load i32, i32* %11, align 4
  %63 = load i32, i32* %4, align 4
  %64 = sub nsw i32 %62, %63
  %65 = sext i32 %64 to i64
  %66 = getelementptr inbounds [100 x i8], [100 x i8]* %12, i64 0, i64 %65
  %67 = load i8, i8* %66, align 1
  %68 = sext i8 %67 to i32
  %69 = icmp sle i32 %68, 90
  br i1 %69, label %70, label %80

70:                                               ; preds = %61
  %71 = load i32, i32* %11, align 4
  %72 = load i32, i32* %4, align 4
  %73 = sub nsw i32 %71, %72
  %74 = sext i32 %73 to i64
  %75 = getelementptr inbounds [100 x i8], [100 x i8]* %12, i64 0, i64 %74
  %76 = load i8, i8* %75, align 1
  %77 = sext i8 %76 to i32
  %78 = sub nsw i32 %77, 65
  %79 = add nsw i32 %78, 10
  store i32 %79, i32* %6, align 4
  br label %89

80:                                               ; preds = %61, %52
  %81 = load i32, i32* %11, align 4
  %82 = load i32, i32* %4, align 4
  %83 = sub nsw i32 %81, %82
  %84 = sext i32 %83 to i64
  %85 = getelementptr inbounds [100 x i8], [100 x i8]* %12, i64 0, i64 %84
  %86 = load i8, i8* %85, align 1
  %87 = sext i8 %86 to i32
  %88 = sub nsw i32 %87, 48
  store i32 %88, i32* %6, align 4
  br label %89

89:                                               ; preds = %80, %70
  br label %90

90:                                               ; preds = %89, %42
  %91 = load i32, i32* %7, align 4
  %92 = load i32, i32* %6, align 4
  %93 = load i32, i32* %8, align 4
  %94 = mul nsw i32 %92, %93
  %95 = add nsw i32 %91, %94
  store i32 %95, i32* %7, align 4
  %96 = load i32, i32* %8, align 4
  %97 = load i32, i32* %2, align 4
  %98 = mul nsw i32 %96, %97
  store i32 %98, i32* %8, align 4
  br label %99

99:                                               ; preds = %90
  %100 = load i32, i32* %4, align 4
  %101 = add nsw i32 %100, 1
  store i32 %101, i32* %4, align 4
  br label %20

102:                                              ; preds = %20
  %103 = load i32, i32* %7, align 4
  %104 = icmp eq i32 %103, 0
  br i1 %104, label %105, label %107

105:                                              ; preds = %102
  %106 = call i32 (i8*, ...) @printf(i8* getelementptr inbounds ([2 x i8], [2 x i8]* @.str.1, i64 0, i64 0))
  br label %178

107:                                              ; preds = %102
  store i32 0, i32* %5, align 4
  br label %108

108:                                              ; preds = %122, %107
  %109 = load i32, i32* %7, align 4
  %110 = icmp sgt i32 %109, 0
  br i1 %110, label %111, label %125

111:                                              ; preds = %108
  %112 = load i32, i32* %7, align 4
  %113 = load i32, i32* %3, align 4
  %114 = srem i32 %112, %113
  %115 = load i32, i32* %5, align 4
  %116 = sext i32 %115 to i64
  %117 = getelementptr inbounds [100 x i32], [100 x i32]* %13, i64 0, i64 %116
  store i32 %114, i32* %117, align 4
  %118 = load i32, i32* %7, align 4
  %119 = load i32, i32* %3, align 4
  %120 = sdiv i32 %118, %119
  store i32 %120, i32* %7, align 4
  %121 = load i32, i32* %5, align 4
  store i32 %121, i32* %10, align 4
  br label %122

122:                                              ; preds = %111
  %123 = load i32, i32* %5, align 4
  %124 = add nsw i32 %123, 1
  store i32 %124, i32* %5, align 4
  br label %108

125:                                              ; preds = %108
  store i32 0, i32* %9, align 4
  br label %126

126:                                              ; preds = %168, %125
  %127 = load i32, i32* %9, align 4
  %128 = load i32, i32* %10, align 4
  %129 = icmp sle i32 %127, %128
  br i1 %129, label %130, label %171

130:                                              ; preds = %126
  %131 = load i32, i32* %9, align 4
  %132 = sext i32 %131 to i64
  %133 = getelementptr inbounds [100 x i32], [100 x i32]* %13, i64 0, i64 %132
  %134 = load i32, i32* %133, align 4
  %135 = icmp sge i32 %134, 0
  br i1 %135, label %136, label %154

136:                                              ; preds = %130
  %137 = load i32, i32* %9, align 4
  %138 = sext i32 %137 to i64
  %139 = getelementptr inbounds [100 x i32], [100 x i32]* %13, i64 0, i64 %138
  %140 = load i32, i32* %139, align 4
  %141 = icmp sle i32 %140, 9
  br i1 %141, label %142, label %154

142:                                              ; preds = %136
  %143 = load i32, i32* %9, align 4
  %144 = sext i32 %143 to i64
  %145 = getelementptr inbounds [100 x i32], [100 x i32]* %13, i64 0, i64 %144
  %146 = load i32, i32* %145, align 4
  %147 = add nsw i32 %146, 48
  %148 = trunc i32 %147 to i8
  %149 = load i32, i32* %10, align 4
  %150 = load i32, i32* %9, align 4
  %151 = sub nsw i32 %149, %150
  %152 = sext i32 %151 to i64
  %153 = getelementptr inbounds [100 x i8], [100 x i8]* %14, i64 0, i64 %152
  store i8 %148, i8* %153, align 1
  br label %167

154:                                              ; preds = %136, %130
  %155 = load i32, i32* %9, align 4
  %156 = sext i32 %155 to i64
  %157 = getelementptr inbounds [100 x i32], [100 x i32]* %13, i64 0, i64 %156
  %158 = load i32, i32* %157, align 4
  %159 = add nsw i32 %158, 65
  %160 = sub nsw i32 %159, 10
  %161 = trunc i32 %160 to i8
  %162 = load i32, i32* %10, align 4
  %163 = load i32, i32* %9, align 4
  %164 = sub nsw i32 %162, %163
  %165 = sext i32 %164 to i64
  %166 = getelementptr inbounds [100 x i8], [100 x i8]* %14, i64 0, i64 %165
  store i8 %161, i8* %166, align 1
  br label %167

167:                                              ; preds = %154, %142
  br label %168

168:                                              ; preds = %167
  %169 = load i32, i32* %9, align 4
  %170 = add nsw i32 %169, 1
  store i32 %170, i32* %9, align 4
  br label %126

171:                                              ; preds = %126
  %172 = load i32, i32* %10, align 4
  %173 = add nsw i32 %172, 1
  %174 = sext i32 %173 to i64
  %175 = getelementptr inbounds [100 x i8], [100 x i8]* %14, i64 0, i64 %174
  store i8 0, i8* %175, align 1
  %176 = getelementptr inbounds [100 x i8], [100 x i8]* %14, i64 0, i64 0
  %177 = call i32 (i8*, ...) @printf(i8* getelementptr inbounds ([3 x i8], [3 x i8]* @.str.2, i64 0, i64 0), i8* %176)
  br label %178

178:                                              ; preds = %171, %105
  %179 = load i32, i32* %1, align 4
  ret i32 %179
}

declare dso_local i32 @__isoc99_scanf(i8*, ...) #1

; Function Attrs: nounwind readonly
declare dso_local i64 @strlen(i8*) #2

declare dso_local i32 @printf(i8*, ...) #1


!llvm.module.flags = !{!0}
!llvm.ident = !{!1}

!0 = !{i32 1, !"wchar_size", i32 4}
!1 = !{!"clang version 10.0.0-4ubuntu1 "}
